libQt5Gamepad.so.5:Qt_5
libQt5Gamepad.so.5:Qt_5.0
libQt5Gamepad.so.5:Qt_5.1
libQt5Gamepad.so.5:Qt_5.10
libQt5Gamepad.so.5:Qt_5.2
libQt5Gamepad.so.5:Qt_5.3
libQt5Gamepad.so.5:Qt_5.4
libQt5Gamepad.so.5:Qt_5.5
libQt5Gamepad.so.5:Qt_5.6
libQt5Gamepad.so.5:Qt_5.7
libQt5Gamepad.so.5:Qt_5.8
libQt5Gamepad.so.5:Qt_5.9
libQt5Gamepad.so.5:Qt_5_PRIVATE_API
libQt5Gamepad.so.5:_ZN15QGamepadBackend11qt_metacallEN11QMetaObject4CallEiPPv
libQt5Gamepad.so.5:_ZN15QGamepadBackend11qt_metacastEPKc
libQt5Gamepad.so.5:_ZN15QGamepadBackend12gamepadAddedEi
libQt5Gamepad.so.5:_ZN15QGamepadBackend12readSettingsEi
libQt5Gamepad.so.5:_ZN15QGamepadBackend12saveSettingsEiRK8QVariant
libQt5Gamepad.so.5:_ZN15QGamepadBackend13configureAxisEiN15QGamepadManager11GamepadAxisE
libQt5Gamepad.so.5:_ZN15QGamepadBackend14axisConfiguredEiN15QGamepadManager11GamepadAxisE
libQt5Gamepad.so.5:_ZN15QGamepadBackend14gamepadRemovedEi
libQt5Gamepad.so.5:_ZN15QGamepadBackend15configureButtonEiN15QGamepadManager13GamepadButtonE
libQt5Gamepad.so.5:_ZN15QGamepadBackend15setSettingsFileERK7QString
libQt5Gamepad.so.5:_ZN15QGamepadBackend16buttonConfiguredEiN15QGamepadManager13GamepadButtonE
libQt5Gamepad.so.5:_ZN15QGamepadBackend16gamepadAxisMovedEiN15QGamepadManager11GamepadAxisEd
libQt5Gamepad.so.5:_ZN15QGamepadBackend18resetConfigurationEi
libQt5Gamepad.so.5:_ZN15QGamepadBackend20gamepadButtonPressedEiN15QGamepadManager13GamepadButtonEd
libQt5Gamepad.so.5:_ZN15QGamepadBackend21configurationCanceledEi
libQt5Gamepad.so.5:_ZN15QGamepadBackend21gamepadButtonReleasedEiN15QGamepadManager13GamepadButtonE
libQt5Gamepad.so.5:_ZN15QGamepadBackend21isConfigurationNeededEi
libQt5Gamepad.so.5:_ZN15QGamepadBackend24setCancelConfigureButtonEiN15QGamepadManager13GamepadButtonE
libQt5Gamepad.so.5:_ZN15QGamepadBackend4stopEv
libQt5Gamepad.so.5:_ZN15QGamepadBackend5startEv
libQt5Gamepad.so.5:_ZN15QGamepadBackendC1EP7QObject
libQt5Gamepad.so.5:_ZN15QGamepadBackendC2EP7QObject
libQt5Gamepad.so.5:_ZN15QGamepadManager11qt_metacallEN11QMetaObject4CallEiPPv
libQt5Gamepad.so.5:_ZN15QGamepadManager11qt_metacastEPKc
libQt5Gamepad.so.5:_ZN15QGamepadManager13configureAxisEiNS_11GamepadAxisE
libQt5Gamepad.so.5:_ZN15QGamepadManager14axisConfiguredEiNS_11GamepadAxisE
libQt5Gamepad.so.5:_ZN15QGamepadManager15configureButtonEiNS_13GamepadButtonE
libQt5Gamepad.so.5:_ZN15QGamepadManager15setSettingsFileERK7QString
libQt5Gamepad.so.5:_ZN15QGamepadManager16buttonConfiguredEiNS_13GamepadButtonE
libQt5Gamepad.so.5:_ZN15QGamepadManager16gamepadAxisEventEiNS_11GamepadAxisEd
libQt5Gamepad.so.5:_ZN15QGamepadManager16gamepadConnectedEi
libQt5Gamepad.so.5:_ZN15QGamepadManager18resetConfigurationEi
libQt5Gamepad.so.5:_ZN15QGamepadManager19gamepadDisconnectedEi
libQt5Gamepad.so.5:_ZN15QGamepadManager21configurationCanceledEi
libQt5Gamepad.so.5:_ZN15QGamepadManager23gamepadButtonPressEventEiNS_13GamepadButtonEd
libQt5Gamepad.so.5:_ZN15QGamepadManager24connectedGamepadsChangedEv
libQt5Gamepad.so.5:_ZN15QGamepadManager24setCancelConfigureButtonEiNS_13GamepadButtonE
libQt5Gamepad.so.5:_ZN15QGamepadManager25gamepadButtonReleaseEventEiNS_13GamepadButtonE
libQt5Gamepad.so.5:_ZN15QGamepadManager8instanceEv
libQt5Gamepad.so.5:_ZN15QGamepadManagerC1Ev
libQt5Gamepad.so.5:_ZN15QGamepadManagerC2Ev
libQt5Gamepad.so.5:_ZN15QGamepadManagerD0Ev
libQt5Gamepad.so.5:_ZN15QGamepadManagerD1Ev
libQt5Gamepad.so.5:_ZN15QGamepadManagerD2Ev
libQt5Gamepad.so.5:_ZN21QGamepadBackendPlugin11qt_metacallEN11QMetaObject4CallEiPPv
libQt5Gamepad.so.5:_ZN21QGamepadBackendPlugin11qt_metacastEPKc
libQt5Gamepad.so.5:_ZN21QGamepadBackendPluginC1EP7QObject
libQt5Gamepad.so.5:_ZN21QGamepadBackendPluginC2EP7QObject
libQt5Gamepad.so.5:_ZN21QGamepadBackendPluginD0Ev
libQt5Gamepad.so.5:_ZN21QGamepadBackendPluginD1Ev
libQt5Gamepad.so.5:_ZN21QGamepadBackendPluginD2Ev
libQt5Gamepad.so.5:_ZN21QGamepadKeyNavigation10setDownKeyEN2Qt3KeyE
libQt5Gamepad.so.5:_ZN21QGamepadKeyNavigation10setGamepadEP8QGamepad
libQt5Gamepad.so.5:_ZN21QGamepadKeyNavigation10setLeftKeyEN2Qt3KeyE
libQt5Gamepad.so.5:_ZN21QGamepadKeyNavigation11qt_metacallEN11QMetaObject4CallEiPPv
libQt5Gamepad.so.5:_ZN21QGamepadKeyNavigation11qt_metacastEPKc
libQt5Gamepad.so.5:_ZN21QGamepadKeyNavigation11setRightKeyEN2Qt3KeyE
libQt5Gamepad.so.5:_ZN21QGamepadKeyNavigation12upKeyChangedEN2Qt3KeyE
libQt5Gamepad.so.5:_ZN21QGamepadKeyNavigation13activeChangedEb
libQt5Gamepad.so.5:_ZN21QGamepadKeyNavigation13setButtonAKeyEN2Qt3KeyE
libQt5Gamepad.so.5:_ZN21QGamepadKeyNavigation13setButtonBKeyEN2Qt3KeyE
libQt5Gamepad.so.5:_ZN21QGamepadKeyNavigation13setButtonXKeyEN2Qt3KeyE
libQt5Gamepad.so.5:_ZN21QGamepadKeyNavigation13setButtonYKeyEN2Qt3KeyE
libQt5Gamepad.so.5:_ZN21QGamepadKeyNavigation14downKeyChangedEN2Qt3KeyE
libQt5Gamepad.so.5:_ZN21QGamepadKeyNavigation14gamepadChangedEP8QGamepad
libQt5Gamepad.so.5:_ZN21QGamepadKeyNavigation14leftKeyChangedEN2Qt3KeyE
libQt5Gamepad.so.5:_ZN21QGamepadKeyNavigation14setButtonL1KeyEN2Qt3KeyE
libQt5Gamepad.so.5:_ZN21QGamepadKeyNavigation14setButtonL2KeyEN2Qt3KeyE
libQt5Gamepad.so.5:_ZN21QGamepadKeyNavigation14setButtonL3KeyEN2Qt3KeyE
libQt5Gamepad.so.5:_ZN21QGamepadKeyNavigation14setButtonR1KeyEN2Qt3KeyE
libQt5Gamepad.so.5:_ZN21QGamepadKeyNavigation14setButtonR2KeyEN2Qt3KeyE
libQt5Gamepad.so.5:_ZN21QGamepadKeyNavigation14setButtonR3KeyEN2Qt3KeyE
libQt5Gamepad.so.5:_ZN21QGamepadKeyNavigation15rightKeyChangedEN2Qt3KeyE
libQt5Gamepad.so.5:_ZN21QGamepadKeyNavigation17buttonAKeyChangedEN2Qt3KeyE
libQt5Gamepad.so.5:_ZN21QGamepadKeyNavigation17buttonBKeyChangedEN2Qt3KeyE
libQt5Gamepad.so.5:_ZN21QGamepadKeyNavigation17buttonXKeyChangedEN2Qt3KeyE
libQt5Gamepad.so.5:_ZN21QGamepadKeyNavigation17buttonYKeyChangedEN2Qt3KeyE
libQt5Gamepad.so.5:_ZN21QGamepadKeyNavigation17setButtonGuideKeyEN2Qt3KeyE
libQt5Gamepad.so.5:_ZN21QGamepadKeyNavigation17setButtonStartKeyEN2Qt3KeyE
libQt5Gamepad.so.5:_ZN21QGamepadKeyNavigation18buttonL1KeyChangedEN2Qt3KeyE
libQt5Gamepad.so.5:_ZN21QGamepadKeyNavigation18buttonL2KeyChangedEN2Qt3KeyE
libQt5Gamepad.so.5:_ZN21QGamepadKeyNavigation18buttonL3KeyChangedEN2Qt3KeyE
libQt5Gamepad.so.5:_ZN21QGamepadKeyNavigation18buttonR1KeyChangedEN2Qt3KeyE
libQt5Gamepad.so.5:_ZN21QGamepadKeyNavigation18buttonR2KeyChangedEN2Qt3KeyE
libQt5Gamepad.so.5:_ZN21QGamepadKeyNavigation18buttonR3KeyChangedEN2Qt3KeyE
libQt5Gamepad.so.5:_ZN21QGamepadKeyNavigation18setButtonSelectKeyEN2Qt3KeyE
libQt5Gamepad.so.5:_ZN21QGamepadKeyNavigation21buttonGuideKeyChangedEN2Qt3KeyE
libQt5Gamepad.so.5:_ZN21QGamepadKeyNavigation21buttonStartKeyChangedEN2Qt3KeyE
libQt5Gamepad.so.5:_ZN21QGamepadKeyNavigation22buttonSelectKeyChangedEN2Qt3KeyE
libQt5Gamepad.so.5:_ZN21QGamepadKeyNavigation8setUpKeyEN2Qt3KeyE
libQt5Gamepad.so.5:_ZN21QGamepadKeyNavigation9setActiveEb
libQt5Gamepad.so.5:_ZN21QGamepadKeyNavigationC1EP7QObject
libQt5Gamepad.so.5:_ZN21QGamepadKeyNavigationC2EP7QObject
libQt5Gamepad.so.5:_ZN22QGamepadBackendFactory4keysERK7QString
libQt5Gamepad.so.5:_ZN22QGamepadBackendFactory6createERK7QStringRK11QStringListS2_
libQt5Gamepad.so.5:_ZN8QGamepad11nameChangedE7QString
libQt5Gamepad.so.5:_ZN8QGamepad11qt_metacallEN11QMetaObject4CallEiPPv
libQt5Gamepad.so.5:_ZN8QGamepad11qt_metacastEPKc
libQt5Gamepad.so.5:_ZN8QGamepad11setDeviceIdEi
libQt5Gamepad.so.5:_ZN8QGamepad14buttonAChangedEb
libQt5Gamepad.so.5:_ZN8QGamepad14buttonBChangedEb
libQt5Gamepad.so.5:_ZN8QGamepad14buttonXChangedEb
libQt5Gamepad.so.5:_ZN8QGamepad14buttonYChangedEb
libQt5Gamepad.so.5:_ZN8QGamepad15buttonL1ChangedEb
libQt5Gamepad.so.5:_ZN8QGamepad15buttonL2ChangedEd
libQt5Gamepad.so.5:_ZN8QGamepad15buttonL3ChangedEb
libQt5Gamepad.so.5:_ZN8QGamepad15buttonR1ChangedEb
libQt5Gamepad.so.5:_ZN8QGamepad15buttonR2ChangedEd
libQt5Gamepad.so.5:_ZN8QGamepad15buttonR3ChangedEb
libQt5Gamepad.so.5:_ZN8QGamepad15buttonUpChangedEb
libQt5Gamepad.so.5:_ZN8QGamepad15deviceIdChangedEi
libQt5Gamepad.so.5:_ZN8QGamepad16axisLeftXChangedEd
libQt5Gamepad.so.5:_ZN8QGamepad16axisLeftYChangedEd
libQt5Gamepad.so.5:_ZN8QGamepad16connectedChangedEb
libQt5Gamepad.so.5:_ZN8QGamepad17axisRightXChangedEd
libQt5Gamepad.so.5:_ZN8QGamepad17axisRightYChangedEd
libQt5Gamepad.so.5:_ZN8QGamepad17buttonDownChangedEb
libQt5Gamepad.so.5:_ZN8QGamepad17buttonLeftChangedEb
libQt5Gamepad.so.5:_ZN8QGamepad18buttonGuideChangedEb
libQt5Gamepad.so.5:_ZN8QGamepad18buttonRightChangedEb
libQt5Gamepad.so.5:_ZN8QGamepad18buttonStartChangedEb
libQt5Gamepad.so.5:_ZN8QGamepad19buttonCenterChangedEb
libQt5Gamepad.so.5:_ZN8QGamepad19buttonSelectChangedEb
libQt5Gamepad.so.5:_ZN8QGamepadC1EiP7QObject
libQt5Gamepad.so.5:_ZN8QGamepadC2EiP7QObject
libQt5Gamepad.so.5:_ZN8QGamepadD0Ev
libQt5Gamepad.so.5:_ZN8QGamepadD1Ev
libQt5Gamepad.so.5:_ZN8QGamepadD2Ev
libQt5Gamepad.so.5:_ZNK15QGamepadBackend10metaObjectEv
libQt5Gamepad.so.5:_ZNK15QGamepadManager10metaObjectEv
libQt5Gamepad.so.5:_ZNK15QGamepadManager17connectedGamepadsEv
libQt5Gamepad.so.5:_ZNK15QGamepadManager18isGamepadConnectedEi
libQt5Gamepad.so.5:_ZNK15QGamepadManager21isConfigurationNeededEi
libQt5Gamepad.so.5:_ZNK21QGamepadBackendPlugin10metaObjectEv
libQt5Gamepad.so.5:_ZNK21QGamepadKeyNavigation10buttonAKeyEv
libQt5Gamepad.so.5:_ZNK21QGamepadKeyNavigation10buttonBKeyEv
libQt5Gamepad.so.5:_ZNK21QGamepadKeyNavigation10buttonXKeyEv
libQt5Gamepad.so.5:_ZNK21QGamepadKeyNavigation10buttonYKeyEv
libQt5Gamepad.so.5:_ZNK21QGamepadKeyNavigation10metaObjectEv
libQt5Gamepad.so.5:_ZNK21QGamepadKeyNavigation11buttonL1KeyEv
libQt5Gamepad.so.5:_ZNK21QGamepadKeyNavigation11buttonL2KeyEv
libQt5Gamepad.so.5:_ZNK21QGamepadKeyNavigation11buttonL3KeyEv
libQt5Gamepad.so.5:_ZNK21QGamepadKeyNavigation11buttonR1KeyEv
libQt5Gamepad.so.5:_ZNK21QGamepadKeyNavigation11buttonR2KeyEv
libQt5Gamepad.so.5:_ZNK21QGamepadKeyNavigation11buttonR3KeyEv
libQt5Gamepad.so.5:_ZNK21QGamepadKeyNavigation14buttonGuideKeyEv
libQt5Gamepad.so.5:_ZNK21QGamepadKeyNavigation14buttonStartKeyEv
libQt5Gamepad.so.5:_ZNK21QGamepadKeyNavigation15buttonSelectKeyEv
libQt5Gamepad.so.5:_ZNK21QGamepadKeyNavigation5upKeyEv
libQt5Gamepad.so.5:_ZNK21QGamepadKeyNavigation6activeEv
libQt5Gamepad.so.5:_ZNK21QGamepadKeyNavigation7downKeyEv
libQt5Gamepad.so.5:_ZNK21QGamepadKeyNavigation7gamepadEv
libQt5Gamepad.so.5:_ZNK21QGamepadKeyNavigation7leftKeyEv
libQt5Gamepad.so.5:_ZNK21QGamepadKeyNavigation8rightKeyEv
libQt5Gamepad.so.5:_ZNK8QGamepad10axisRightXEv
libQt5Gamepad.so.5:_ZNK8QGamepad10axisRightYEv
libQt5Gamepad.so.5:_ZNK8QGamepad10buttonDownEv
libQt5Gamepad.so.5:_ZNK8QGamepad10buttonLeftEv
libQt5Gamepad.so.5:_ZNK8QGamepad10metaObjectEv
libQt5Gamepad.so.5:_ZNK8QGamepad11buttonGuideEv
libQt5Gamepad.so.5:_ZNK8QGamepad11buttonRightEv
libQt5Gamepad.so.5:_ZNK8QGamepad11buttonStartEv
libQt5Gamepad.so.5:_ZNK8QGamepad11isConnectedEv
libQt5Gamepad.so.5:_ZNK8QGamepad12buttonCenterEv
libQt5Gamepad.so.5:_ZNK8QGamepad12buttonSelectEv
libQt5Gamepad.so.5:_ZNK8QGamepad4nameEv
libQt5Gamepad.so.5:_ZNK8QGamepad7buttonAEv
libQt5Gamepad.so.5:_ZNK8QGamepad7buttonBEv
libQt5Gamepad.so.5:_ZNK8QGamepad7buttonXEv
libQt5Gamepad.so.5:_ZNK8QGamepad7buttonYEv
libQt5Gamepad.so.5:_ZNK8QGamepad8buttonL1Ev
libQt5Gamepad.so.5:_ZNK8QGamepad8buttonL2Ev
libQt5Gamepad.so.5:_ZNK8QGamepad8buttonL3Ev
libQt5Gamepad.so.5:_ZNK8QGamepad8buttonR1Ev
libQt5Gamepad.so.5:_ZNK8QGamepad8buttonR2Ev
libQt5Gamepad.so.5:_ZNK8QGamepad8buttonR3Ev
libQt5Gamepad.so.5:_ZNK8QGamepad8buttonUpEv
libQt5Gamepad.so.5:_ZNK8QGamepad8deviceIdEv
libQt5Gamepad.so.5:_ZNK8QGamepad9axisLeftXEv
libQt5Gamepad.so.5:_ZNK8QGamepad9axisLeftYEv
